target datalayout = "e-m:e-p270:32:32-p271:32:32-p272:64:64-i64:64-i128:128-f80:128-n8:16:32:64-S128"
target triple = "x86_64-pc-linux-gnu"

%"struct.duckdb::LogicalType" = type { i8, i8, %"class.duckdb::shared_ptr.107" }
%"class.duckdb::shared_ptr.107" = type { %"class.std::shared_ptr.108" }
%"class.std::shared_ptr.108" = type { %"class.std::__shared_ptr.109" }
%"class.std::__shared_ptr.109" = type { ptr, %"class.std::__shared_count" }
%"class.std::__shared_count" = type { ptr }
%"class.duckdb::optional_ptr.1585" = type { ptr }

; Function Attrs: inlinehint mustprogress nounwind uwtable
define linkonce_odr noundef zeroext i8 @_ZNK6duckdb11LogicalType12InternalTypeEv(ptr noundef nonnull align 8 dereferenceable(24) %0) #7 comdat align 2 {
  %2 = alloca ptr, align 8
  store ptr %0, ptr %2, align 8, !tbaa !197
  %3 = load ptr, ptr %2, align 8
  %4 = getelementptr inbounds nuw %"struct.duckdb::LogicalType", ptr %3, i32 0, i32 1
  %5 = load i8, ptr %4, align 1, !tbaa !1137
  ret i8 %5
}

; Function Attrs: mustprogress nounwind uwtable
define linkonce_odr void @_ZN6duckdb12optional_ptrIN14duckdb_parquet4Type4typeELb1EEC2EPS3_(ptr noundef nonnull align 8 dereferenceable(8) %0, ptr noundef %1) unnamed_addr #5 comdat align 2 {
  %3 = alloca ptr, align 8
  %4 = alloca ptr, align 8
  store ptr %0, ptr %3, align 8, !tbaa !3077
  store ptr %1, ptr %4, align 8, !tbaa !441
  %5 = load ptr, ptr %3, align 8
  %6 = getelementptr inbounds nuw %"class.duckdb::optional_ptr.1585", ptr %5, i32 0, i32 0
  %7 = load ptr, ptr %4, align 8, !tbaa !441
  store ptr %7, ptr %6, align 8, !tbaa !3079
  ret void
}

; Function Attrs: inlinehint mustprogress uwtable
define linkonce_odr noundef zeroext i1 @_ZNK6duckdb11LogicalType8IsNestedEv(ptr noundef nonnull align 8 dereferenceable(24) %0) #8 comdat align 2 {
  %2 = alloca i1, align 1
  %3 = alloca ptr, align 8
  %4 = alloca i8, align 1
  %5 = alloca i32, align 4
  store ptr %0, ptr %3, align 8, !tbaa !197
  %6 = load ptr, ptr %3, align 8
  call void @llvm.lifetime.start.p0(i64 1, ptr %4) #3
  %7 = call noundef zeroext i8 @_ZNK6duckdb11LogicalType12InternalTypeEv(ptr noundef nonnull align 8 dereferenceable(24) %6)
  store i8 %7, ptr %4, align 1, !tbaa !3076
  %8 = load i8, ptr %4, align 1, !tbaa !3076
  %9 = icmp eq i8 %8, 24
  br i1 %9, label %10, label %11

10:                                               ; preds = %1
  store i1 true, ptr %2, align 1
  store i32 1, ptr %5, align 4
  br label %20

11:                                               ; preds = %1
  %12 = load i8, ptr %4, align 1, !tbaa !3076
  %13 = icmp eq i8 %12, 23
  br i1 %13, label %14, label %15

14:                                               ; preds = %11
  store i1 true, ptr %2, align 1
  store i32 1, ptr %5, align 4
  br label %20

15:                                               ; preds = %11
  %16 = load i8, ptr %4, align 1, !tbaa !3076
  %17 = icmp eq i8 %16, 29
  br i1 %17, label %18, label %19

18:                                               ; preds = %15
  store i1 true, ptr %2, align 1
  store i32 1, ptr %5, align 4
  br label %20

19:                                               ; preds = %15
  store i1 false, ptr %2, align 1
  store i32 1, ptr %5, align 4
  br label %20

20:                                               ; preds = %19, %18, %14, %10
  call void @llvm.lifetime.end.p0(i64 1, ptr %4) #3
  %21 = load i1, ptr %2, align 1
  ret i1 %21
}

; Function Attrs: mustprogress uwtable
define internal noundef zeroext i1 @_ZN6duckdbL18IsTypeNotSupportedERKNS_11LogicalTypeE(ptr noundef nonnull align 8 dereferenceable(24) %0) #4 {
  %2 = alloca i1, align 1
  %3 = alloca ptr, align 8
  %4 = alloca %"class.duckdb::optional_ptr.1585", align 8
  store ptr %0, ptr %3, align 8, !tbaa !197
  %5 = load ptr, ptr %3, align 8, !tbaa !197
  %6 = call noundef zeroext i1 @_ZNK6duckdb11LogicalType8IsNestedEv(ptr noundef nonnull align 8 dereferenceable(24) %5)
  br i1 %6, label %7, label %8

7:                                                ; preds = %1
  store i1 false, ptr %2, align 1
  br label %14

8:                                                ; preds = %1
  %9 = load ptr, ptr %3, align 8, !tbaa !197
  call void @_ZN6duckdb12optional_ptrIN14duckdb_parquet4Type4typeELb1EEC2EPS3_(ptr noundef nonnull align 8 dereferenceable(8) %4, ptr noundef null)
  %10 = getelementptr inbounds nuw %"class.duckdb::optional_ptr.1585", ptr %4, i32 0, i32 0
  %11 = load ptr, ptr %10, align 8
  %12 = call noundef zeroext i1 @_ZN6duckdb13ParquetWriter17TryGetParquetTypeERKNS_11LogicalTypeENS_12optional_ptrIN14duckdb_parquet4Type4typeELb1EEE(ptr noundef nonnull align 8 dereferenceable(24) %9, ptr %11)
  %13 = xor i1 %12, true
  store i1 %13, ptr %2, align 1
  br label %14

14:                                               ; preds = %8, %7
  %15 = load i1, ptr %2, align 1
  ret i1 %15
}