; Function Attrs: mustprogress uwtable
define internal noundef zeroext i1 @_ZN6duckdbL18IsTypeNotSupportedERKNS_11LogicalTypeE(ptr noundef nonnull align 8 dereferenceable(24) %0) #3 {
  %2 = getelementptr inbounds nuw i8, ptr %0, i64 1
  %3 = load i8, ptr %2, align 1, !tbaa !621
  switch i8 %3, label %_ZNK6duckdb11LogicalType8IsNestedEv.exit [
    i8 24, label %_ZNK6duckdb11LogicalType8IsNestedEv.exit.thread
    i8 23, label %_ZNK6duckdb11LogicalType8IsNestedEv.exit.thread
    i8 29, label %_ZNK6duckdb11LogicalType8IsNestedEv.exit.thread
  ]

_ZNK6duckdb11LogicalType8IsNestedEv.exit:         ; preds = %1
  %4 = tail call noundef zeroext i1 @_ZN6duckdb13ParquetWriter17TryGetParquetTypeERKNS_11LogicalTypeENS_12optional_ptrIN14duckdb_parquet4Type4typeELb1EEE(ptr noundef nonnull align 8 dereferenceable(24) %0, ptr null)
  %5 = xor i1 %4, true
  br label %_ZNK6duckdb11LogicalType8IsNestedEv.exit.thread

_ZNK6duckdb11LogicalType8IsNestedEv.exit.thread:  ; preds = %1, %1, %1, %_ZNK6duckdb11LogicalType8IsNestedEv.exit
  %.0 = phi i1 [ %5, %_ZNK6duckdb11LogicalType8IsNestedEv.exit ], [ false, %1 ], [ false, %1 ], [ false, %1 ]
  ret i1 %.0
}